target datalayout = "e-m:e-p270:32:32-p271:32:32-p272:64:64-i64:64-i128:128-f80:128-n8:16:32:64-S128"
target triple = "x86_64-unknown-linux-gnu"

; Function Attrs: mustprogress nounwind uwtable
define dso_local noundef zeroext i1 @_ZN4base15DictionaryValue15GetAsDictionaryEPPS0_(ptr noundef nonnull align 8 dereferenceable(64) %this, ptr noundef %out_value) unnamed_addr #0 align 2 {
entry:
  %this.addr = alloca ptr, align 8
  %out_value.addr = alloca ptr, align 8
  store ptr %this, ptr %this.addr, align 8
  store ptr %out_value, ptr %out_value.addr, align 8
  %this1 = load ptr, ptr %this.addr, align 8
  %0 = load ptr, ptr %out_value.addr, align 8
  %tobool = icmp ne ptr %0, null
  br i1 %tobool, label %if.then, label %if.end

if.then:                                          ; preds = %entry
  %1 = load ptr, ptr %out_value.addr, align 8
  store ptr %this1, ptr %1, align 8
  br label %if.end

if.end:                                           ; preds = %if.then, %entry
  ret i1 true
}